target datalayout = "e-m:e-p270:32:32-p271:32:32-p272:64:64-i64:64-i128:128-f80:128-n8:16:32:64-S128"
target triple = "x86_64-pc-linux-gnu"

%class.VM_Operation = type { ptr, ptr }
%class.VM_GetObjectMonitorUsage = type <{ %class.VM_Operation, ptr, ptr, ptr, ptr, i32, [4 x i8] }>

@_ZN6Thread12_thr_currentE = external thread_local global ptr, align 8
@_ZTV12VM_Operation = external unnamed_addr constant { [12 x ptr] }, align 8

; Function Attrs: mustprogress nounwind uwtable
define linkonce_odr hidden noundef ptr @_ZN6Thread15current_or_nullEv() #1 comdat align 2 {
  %1 = call align 8 ptr @llvm.threadlocal.address.p0(ptr align 8 @_ZN6Thread12_thr_currentE)
  %2 = load ptr, ptr %1, align 8
  ret ptr %2
}

; Function Attrs: mustprogress nounwind uwtable
define linkonce_odr hidden void @_ZN12VM_OperationC2Ev(ptr noundef nonnull align 8 dereferenceable(16) %0) unnamed_addr #1 comdat align 2 {
  %2 = alloca ptr, align 8
  store ptr %0, ptr %2, align 8
  %3 = load ptr, ptr %2, align 8
  store ptr getelementptr inbounds inrange(-16, 80) ({ [12 x ptr] }, ptr @_ZTV12VM_Operation, i32 0, i32 0, i32 2), ptr %3, align 8
  %4 = getelementptr inbounds %class.VM_Operation, ptr %3, i32 0, i32 1
  store ptr null, ptr %4, align 8
  ret void
}

; Function Attrs: mustprogress nounwind uwtable
define linkonce_odr hidden noundef ptr @_ZN10JavaThread4castEP6Thread(ptr noundef %0) #1 comdat align 2 {
  %2 = alloca ptr, align 8
  store ptr %0, ptr %2, align 8
  %3 = load ptr, ptr %2, align 8
  ret ptr %3
}

; Function Attrs: mustprogress nounwind uwtable
define linkonce_odr hidden noundef ptr @_ZN6Thread7currentEv() #1 comdat align 2 {
  %1 = alloca ptr, align 8
  %2 = call noundef ptr @_ZN6Thread15current_or_nullEv()
  store ptr %2, ptr %1, align 8
  %3 = load ptr, ptr %1, align 8
  ret ptr %3
}

; Function Attrs: mustprogress nounwind uwtable
define linkonce_odr hidden noundef i32 @_ZN24VM_GetObjectMonitorUsage6resultEv(ptr noundef nonnull align 8 dereferenceable(52) %0) #1 comdat align 2 {
  %2 = alloca ptr, align 8
  store ptr %0, ptr %2, align 8
  %3 = load ptr, ptr %2, align 8
  %4 = getelementptr inbounds %class.VM_GetObjectMonitorUsage, ptr %3, i32 0, i32 5
  %5 = load i32, ptr %4, align 8
  ret i32 %5
}

; Function Attrs: mustprogress nounwind uwtable
define linkonce_odr hidden void @_ZN24VM_GetObjectMonitorUsageC2EP8JvmtiEnvP10JavaThreadP8_jobjectP17jvmtiMonitorUsage(ptr noundef nonnull align 8 dereferenceable(52) %0, ptr noundef %1, ptr noundef %2, ptr noundef %3, ptr noundef %4) unnamed_addr #1 comdat align 2 {
  %6 = alloca ptr, align 8
  %7 = alloca ptr, align 8
  %8 = alloca ptr, align 8
  %9 = alloca ptr, align 8
  %10 = alloca ptr, align 8
  store ptr %0, ptr %6, align 8
  store ptr %1, ptr %7, align 8
  store ptr %2, ptr %8, align 8
  store ptr %3, ptr %9, align 8
  store ptr %4, ptr %10, align 8
  %11 = load ptr, ptr %6, align 8
  call void @_ZN12VM_OperationC2Ev(ptr noundef nonnull align 8 dereferenceable(16) %11)
  store ptr getelementptr inbounds inrange(-16, 80) ({ [12 x ptr] }, ptr @_ZTV24VM_GetObjectMonitorUsage, i32 0, i32 0, i32 2), ptr %11, align 8
  %12 = load ptr, ptr %7, align 8
  %13 = getelementptr inbounds %class.VM_GetObjectMonitorUsage, ptr %11, i32 0, i32 1
  store ptr %12, ptr %13, align 8
  %14 = load ptr, ptr %9, align 8
  %15 = getelementptr inbounds %class.VM_GetObjectMonitorUsage, ptr %11, i32 0, i32 2
  store ptr %14, ptr %15, align 8
  %16 = load ptr, ptr %8, align 8
  %17 = getelementptr inbounds %class.VM_GetObjectMonitorUsage, ptr %11, i32 0, i32 3
  store ptr %16, ptr %17, align 8
  %18 = load ptr, ptr %10, align 8
  %19 = getelementptr inbounds %class.VM_GetObjectMonitorUsage, ptr %11, i32 0, i32 4
  store ptr %18, ptr %19, align 8
  ret void
}

; Function Attrs: mustprogress nounwind uwtable
define linkonce_odr hidden noundef ptr @_ZN10JavaThread7currentEv() #1 comdat align 2 {
  %1 = call noundef ptr @_ZN6Thread7currentEv()
  %2 = call noundef ptr @_ZN10JavaThread4castEP6Thread(ptr noundef %1)
  ret ptr %2
}

; Function Attrs: mustprogress nounwind uwtable
define hidden noundef i32 @_ZN8JvmtiEnv21GetObjectMonitorUsageEP8_jobjectP17jvmtiMonitorUsage(ptr noundef nonnull align 8 dereferenceable(460) %0, ptr noundef %1, ptr noundef %2) #1 align 2 {
  %4 = alloca ptr, align 8
  %5 = alloca ptr, align 8
  %6 = alloca ptr, align 8
  %7 = alloca %class.VM_GetObjectMonitorUsage, align 8
  store ptr %0, ptr %4, align 8
  store ptr %1, ptr %5, align 8
  store ptr %2, ptr %6, align 8
  %8 = load ptr, ptr %4, align 8
  %9 = call noundef ptr @_ZN10JavaThread7currentEv()
  %10 = load ptr, ptr %5, align 8
  %11 = load ptr, ptr %6, align 8
  call void @_ZN24VM_GetObjectMonitorUsageC2EP8JvmtiEnvP10JavaThreadP8_jobjectP17jvmtiMonitorUsage(ptr noundef nonnull align 8 dereferenceable(52) %7, ptr noundef %8, ptr noundef %9, ptr noundef %10, ptr noundef %11)
  call void @_ZN8VMThread7executeEP12VM_Operation(ptr noundef %7)
  %12 = call noundef i32 @_ZN24VM_GetObjectMonitorUsage6resultEv(ptr noundef nonnull align 8 dereferenceable(52) %7)
  ret i32 %12
}