; Function Attrs: mustprogress nounwind uwtable
define hidden noundef i32 @_ZN8JvmtiEnv21GetObjectMonitorUsageEP8_jobjectP17jvmtiMonitorUsage(ptr noundef nonnull align 8 dereferenceable(460) %0, ptr noundef %1, ptr noundef %2) local_unnamed_addr #0 align 2 {
  %4 = alloca %class.VM_GetObjectMonitorUsage, align 8
  %5 = tail call align 8 ptr @llvm.threadlocal.address.p0(ptr align 8 @_ZN6Thread12_thr_currentE)
  %6 = load ptr, ptr %5, align 8
  %7 = getelementptr inbounds i8, ptr %4, i64 8
  store ptr null, ptr %7, align 8
  store ptr getelementptr inbounds inrange(-16, 80) (i8, ptr @_ZTV24VM_GetObjectMonitorUsage, i64 16), ptr %4, align 8
  %8 = getelementptr inbounds i8, ptr %4, i64 16
  store ptr %0, ptr %8, align 8
  %9 = getelementptr inbounds i8, ptr %4, i64 24
  store ptr %1, ptr %9, align 8
  %10 = getelementptr inbounds i8, ptr %4, i64 32
  store ptr %6, ptr %10, align 8
  %11 = getelementptr inbounds i8, ptr %4, i64 40
  store ptr %2, ptr %11, align 8
  call void @_ZN8VMThread7executeEP12VM_Operation(ptr noundef nonnull %4) #17
  %12 = getelementptr inbounds i8, ptr %4, i64 48
  %13 = load i32, ptr %12, align 8
  ret i32 %13
}